target datalayout = "e-m:e-p270:32:32-p271:32:32-p272:64:64-i64:64-i128:128-f80:128-n8:16:32:64-S128"
target triple = "x86_64-pc-linux-gnu"

%"class.casadi::Sparsity" = type { %"class.casadi::SharedObject" }
%"class.casadi::SharedObject" = type { ptr }
%"class.std::vector.3" = type { %"struct.std::_Vector_base.4" }
%"struct.std::_Vector_base.4" = type { %"struct.std::_Vector_base<long long, std::allocator<long long>>::_Vector_impl" }
%"struct.std::_Vector_base<long long, std::allocator<long long>>::_Vector_impl" = type { %"struct.std::_Vector_base<long long, std::allocator<long long>>::_Vector_impl_data" }
%"struct.std::_Vector_base<long long, std::allocator<long long>>::_Vector_impl_data" = type { ptr, ptr, ptr }
%"class.casadi::SparsityInternal" = type { %"class.casadi::SharedObjectInternal", %"class.std::vector.3", ptr }
%"class.casadi::SharedObjectInternal" = type { ptr, i64, ptr }

; Function Attrs: mustprogress nounwind uwtable
define linkonce_odr hidden noundef nonnull align 8 dereferenceable(8) ptr @_ZNKSt6vectorIxSaIxEEixEm(ptr noundef nonnull align 8 dereferenceable(24) %0, i64 noundef %1) #5 comdat align 2 {
  %3 = alloca ptr, align 8
  %4 = alloca i64, align 8
  store ptr %0, ptr %3, align 8
  store i64 %1, ptr %4, align 8
  %5 = load ptr, ptr %3, align 8
  %6 = getelementptr inbounds %"struct.std::_Vector_base.4", ptr %5, i32 0, i32 0
  %7 = getelementptr inbounds %"struct.std::_Vector_base<long long, std::allocator<long long>>::_Vector_impl_data", ptr %6, i32 0, i32 0
  %8 = load ptr, ptr %7, align 8
  %9 = load i64, ptr %4, align 8
  %10 = getelementptr inbounds i64, ptr %8, i64 %9
  ret ptr %10
}

; Function Attrs: mustprogress nounwind uwtable
define linkonce_odr hidden noundef i64 @_ZNK6casadi16SparsityInternal5size2Ev(ptr noundef nonnull align 8 dereferenceable(56) %0) #5 comdat align 2 {
  %2 = alloca ptr, align 8
  store ptr %0, ptr %2, align 8
  %3 = load ptr, ptr %2, align 8
  %4 = getelementptr inbounds %"class.casadi::SparsityInternal", ptr %3, i32 0, i32 1
  %5 = call noundef nonnull align 8 dereferenceable(8) ptr @_ZNKSt6vectorIxSaIxEEixEm(ptr noundef nonnull align 8 dereferenceable(24) %4, i64 noundef 1) #3
  %6 = load i64, ptr %5, align 8
  ret i64 %6
}

; Function Attrs: mustprogress nounwind uwtable
define linkonce_odr hidden noundef i64 @_ZNK6casadi16SparsityInternal5size1Ev(ptr noundef nonnull align 8 dereferenceable(56) %0) #5 comdat align 2 {
  %2 = alloca ptr, align 8
  store ptr %0, ptr %2, align 8
  %3 = load ptr, ptr %2, align 8
  %4 = getelementptr inbounds %"class.casadi::SparsityInternal", ptr %3, i32 0, i32 1
  %5 = call noundef nonnull align 8 dereferenceable(8) ptr @_ZNKSt6vectorIxSaIxEEixEm(ptr noundef nonnull align 8 dereferenceable(24) %4, i64 noundef 0) #3
  %6 = load i64, ptr %5, align 8
  ret i64 %6
}

; Function Attrs: mustprogress nounwind uwtable
define linkonce_odr hidden void @_ZN6casadi8SparsityD2Ev(ptr noundef nonnull align 8 dereferenceable(8) %0) unnamed_addr #5 comdat align 2 {
  %2 = alloca ptr, align 8
  store ptr %0, ptr %2, align 8
  %3 = load ptr, ptr %2, align 8
  call void @_ZN6casadi12SharedObjectD2Ev(ptr noundef nonnull align 8 dereferenceable(8) %3) #3
  ret void
}

; Function Attrs: mustprogress uwtable
define linkonce_odr hidden noundef nonnull align 8 dereferenceable(8) ptr @_ZN6casadi8SparsityaSEOS0_(ptr noundef nonnull align 8 dereferenceable(8) %0, ptr noundef nonnull align 8 dereferenceable(8) %1) #4 comdat align 2 {
  %3 = alloca ptr, align 8
  %4 = alloca ptr, align 8
  store ptr %0, ptr %3, align 8
  store ptr %1, ptr %4, align 8
  %5 = load ptr, ptr %3, align 8
  %6 = load ptr, ptr %4, align 8
  %7 = call noundef nonnull align 8 dereferenceable(8) ptr @_ZN6casadi12SharedObjectaSERKS0_(ptr noundef nonnull align 8 dereferenceable(8) %5, ptr noundef nonnull align 8 dereferenceable(8) %6)
  ret ptr %5
}

; Function Attrs: mustprogress uwtable
define noundef ptr @_ZNK6casadi8SparsityptEv(ptr noundef nonnull align 8 dereferenceable(8) %0) #4 align 2 {
  %2 = alloca ptr, align 8
  store ptr %0, ptr %2, align 8
  %3 = load ptr, ptr %2, align 8
  %4 = call noundef ptr @_ZNK6casadi12SharedObjectptEv(ptr noundef nonnull align 8 dereferenceable(8) %3)
  ret ptr %4
}

; Function Attrs: mustprogress uwtable
define noundef i64 @_ZNK6casadi8Sparsity5size2Ev(ptr noundef nonnull align 8 dereferenceable(8) %0) #4 align 2 {
  %2 = alloca ptr, align 8
  store ptr %0, ptr %2, align 8
  %3 = load ptr, ptr %2, align 8
  %4 = call noundef ptr @_ZNK6casadi8SparsityptEv(ptr noundef nonnull align 8 dereferenceable(8) %3)
  %5 = call noundef i64 @_ZNK6casadi16SparsityInternal5size2Ev(ptr noundef nonnull align 8 dereferenceable(56) %4)
  ret i64 %5
}

; Function Attrs: mustprogress uwtable
define noundef i64 @_ZNK6casadi8Sparsity5size1Ev(ptr noundef nonnull align 8 dereferenceable(8) %0) #4 align 2 {
  %2 = alloca ptr, align 8
  store ptr %0, ptr %2, align 8
  %3 = load ptr, ptr %2, align 8
  %4 = call noundef ptr @_ZNK6casadi8SparsityptEv(ptr noundef nonnull align 8 dereferenceable(8) %3)
  %5 = call noundef i64 @_ZNK6casadi16SparsityInternal5size1Ev(ptr noundef nonnull align 8 dereferenceable(56) %4)
  ret i64 %5
}

; Function Attrs: mustprogress uwtable
define void @_ZN6casadi8Sparsity6resizeExx(ptr noundef nonnull align 8 dereferenceable(8) %0, i64 noundef %1, i64 noundef %2) #4 align 2 personality ptr @__gxx_personality_v0 {
  %4 = alloca ptr, align 8
  %5 = alloca i64, align 8
  %6 = alloca i64, align 8
  %7 = alloca %"class.casadi::Sparsity", align 8
  %8 = alloca ptr, align 8
  %9 = alloca i32, align 4
  store ptr %0, ptr %4, align 8
  store i64 %1, ptr %5, align 8
  store i64 %2, ptr %6, align 8
  %10 = load ptr, ptr %4, align 8
  %11 = call noundef i64 @_ZNK6casadi8Sparsity5size1Ev(ptr noundef nonnull align 8 dereferenceable(8) %10)
  %12 = load i64, ptr %5, align 8
  %13 = icmp ne i64 %11, %12
  br i1 %13, label %18, label %14

14:                                               ; preds = %3
  %15 = call noundef i64 @_ZNK6casadi8Sparsity5size2Ev(ptr noundef nonnull align 8 dereferenceable(8) %10)
  %16 = load i64, ptr %6, align 8
  %17 = icmp ne i64 %15, %16
  br i1 %17, label %18, label %28

18:                                               ; preds = %14, %3
  %19 = call noundef ptr @_ZNK6casadi8SparsityptEv(ptr noundef nonnull align 8 dereferenceable(8) %10)
  %20 = load i64, ptr %5, align 8
  %21 = load i64, ptr %6, align 8
  call void @_ZNK6casadi16SparsityInternal7_resizeExx(ptr dead_on_unwind writable sret(%"class.casadi::Sparsity") align 8 %7, ptr noundef nonnull align 8 dereferenceable(56) %19, i64 noundef %20, i64 noundef %21)
  %22 = invoke noundef nonnull align 8 dereferenceable(8) ptr @_ZN6casadi8SparsityaSEOS0_(ptr noundef nonnull align 8 dereferenceable(8) %10, ptr noundef nonnull align 8 dereferenceable(8) %7)
          to label %23 unwind label %24

23:                                               ; preds = %18
  call void @_ZN6casadi8SparsityD2Ev(ptr noundef nonnull align 8 dereferenceable(8) %7) #3
  br label %28

24:                                               ; preds = %18
  %25 = landingpad { ptr, i32 }
          cleanup
  %26 = extractvalue { ptr, i32 } %25, 0
  store ptr %26, ptr %8, align 8
  %27 = extractvalue { ptr, i32 } %25, 1
  store i32 %27, ptr %9, align 4
  call void @_ZN6casadi8SparsityD2Ev(ptr noundef nonnull align 8 dereferenceable(8) %7) #3
  br label %29

28:                                               ; preds = %23, %14
  ret void

29:                                               ; preds = %24
  %30 = load ptr, ptr %8, align 8
  %31 = load i32, ptr %9, align 4
  %32 = insertvalue { ptr, i32 } poison, ptr %30, 0
  %33 = insertvalue { ptr, i32 } %32, i32 %31, 1
  resume { ptr, i32 } %33
}