; Function Attrs: mustprogress uwtable
define void @_ZN6casadi8Sparsity6resizeExx(ptr noundef nonnull align 8 dereferenceable(8) %0, i64 noundef %1, i64 noundef %2) local_unnamed_addr #3 align 2 personality ptr @__gxx_personality_v0 {
  %4 = alloca %"class.casadi::Sparsity", align 8
  %5 = tail call noundef ptr @_ZNK6casadi12SharedObjectptEv(ptr noundef nonnull align 8 dereferenceable(8) %0)
  %6 = getelementptr inbounds i8, ptr %5, i64 24
  %7 = load ptr, ptr %6, align 8
  %8 = load i64, ptr %7, align 8
  %.not = icmp eq i64 %8, %1
  br i1 %.not, label %9, label %15

9:                                                ; preds = %3
  %10 = tail call noundef ptr @_ZNK6casadi12SharedObjectptEv(ptr noundef nonnull align 8 dereferenceable(8) %0)
  %11 = getelementptr inbounds i8, ptr %10, i64 24
  %12 = load ptr, ptr %11, align 8
  %13 = getelementptr inbounds i8, ptr %12, i64 8
  %14 = load i64, ptr %13, align 8
  %.not6 = icmp eq i64 %14, %2
  br i1 %.not6, label %20, label %15

15:                                               ; preds = %9, %3
  %16 = tail call noundef ptr @_ZNK6casadi12SharedObjectptEv(ptr noundef nonnull align 8 dereferenceable(8) %0)
  call void @_ZNK6casadi16SparsityInternal7_resizeExx(ptr dead_on_unwind nonnull writable sret(%"class.casadi::Sparsity") align 8 %4, ptr noundef nonnull align 8 dereferenceable(56) %16, i64 noundef %1, i64 noundef %2)
  %17 = invoke noundef nonnull align 8 dereferenceable(8) ptr @_ZN6casadi12SharedObjectaSERKS0_(ptr noundef nonnull align 8 dereferenceable(8) %0, ptr noundef nonnull align 8 dereferenceable(8) %4)
          to label %_ZN6casadi8SparsityaSEOS0_.exit unwind label %18

_ZN6casadi8SparsityaSEOS0_.exit:                  ; preds = %15
  call void @_ZN6casadi12SharedObjectD2Ev(ptr noundef nonnull align 8 dereferenceable(8) %4) #24
  br label %20

18:                                               ; preds = %15
  %19 = landingpad { ptr, i32 }
          cleanup
  call void @_ZN6casadi12SharedObjectD2Ev(ptr noundef nonnull align 8 dereferenceable(8) %4) #24
  resume { ptr, i32 } %19

20:                                               ; preds = %_ZN6casadi8SparsityaSEOS0_.exit, %9
  ret void
}